target datalayout = "e-m:e-p270:32:32-p271:32:32-p272:64:64-i64:64-i128:128-f80:128-n8:16:32:64-S128"
target triple = "x86_64-pc-linux-gnu"

@.str.97 = private unnamed_addr constant [8 x i8] c"rfc_822\00", align 1
@.str.98 = private unnamed_addr constant [9 x i8] c"iso_8601\00", align 1

; Function Attrs: nounwind uwtable
define dso_local i32 @set_dateopt(ptr noundef %0, ptr noundef %1) #0 {
  %3 = alloca i32, align 4
  %4 = alloca ptr, align 8
  %5 = alloca ptr, align 8
  store ptr %0, ptr %4, align 8, !tbaa !33
  store ptr %1, ptr %5, align 8, !tbaa !9
  %6 = load ptr, ptr %5, align 8, !tbaa !9
  %7 = call i32 @OPENSSL_strcasecmp(ptr noundef %6, ptr noundef @.str.97)
  %8 = icmp eq i32 %7, 0
  br i1 %8, label %9, label %11

9:                                                ; preds = %2
  %10 = load ptr, ptr %4, align 8, !tbaa !33
  store i64 0, ptr %10, align 8, !tbaa !28
  br label %19

11:                                               ; preds = %2
  %12 = load ptr, ptr %5, align 8, !tbaa !9
  %13 = call i32 @OPENSSL_strcasecmp(ptr noundef %12, ptr noundef @.str.98)
  %14 = icmp eq i32 %13, 0
  br i1 %14, label %15, label %17

15:                                               ; preds = %11
  %16 = load ptr, ptr %4, align 8, !tbaa !33
  store i64 1, ptr %16, align 8, !tbaa !28
  br label %18

17:                                               ; preds = %11
  store i32 0, ptr %3, align 4
  br label %20

18:                                               ; preds = %15
  br label %19

19:                                               ; preds = %18, %9
  store i32 1, ptr %3, align 4
  br label %20

20:                                               ; preds = %19, %17
  %21 = load i32, ptr %3, align 4
  ret i32 %21
}