; Function Attrs: nounwind uwtable
define dso_local range(i32 0, 2) i32 @set_dateopt(ptr noundef writeonly captures(none) %0, ptr noundef %1) local_unnamed_addr #0 {
  %3 = tail call i32 @OPENSSL_strcasecmp(ptr noundef %1, ptr noundef nonnull @.str.97) #27
  %4 = icmp eq i32 %3, 0
  br i1 %4, label %8, label %5

5:                                                ; preds = %2
  %6 = tail call i32 @OPENSSL_strcasecmp(ptr noundef %1, ptr noundef nonnull @.str.98) #27
  %7 = icmp eq i32 %6, 0
  br i1 %7, label %8, label %9

8:                                                ; preds = %5, %2
  %storemerge = phi i64 [ 0, %2 ], [ 1, %5 ]
  store i64 %storemerge, ptr %0, align 8, !tbaa !24
  br label %9

9:                                                ; preds = %5, %8
  %.0 = phi i32 [ 1, %8 ], [ 0, %5 ]
  ret i32 %.0
}